; Function Attrs: nounwind uwtable
define internal ptr @rc2_40_cbc_newctx(ptr readnone captures(none) %0) #0 {
  %2 = tail call i32 @ossl_prov_is_running() #5
  %.not = icmp eq i32 %2, 0
  br i1 %.not, label %8, label %3

3:                                                ; preds = %1
  %4 = tail call noalias ptr @CRYPTO_zalloc(i64 noundef 456, ptr noundef nonnull @.str, i32 noundef 288) #5
  %.not6 = icmp eq ptr %4, null
  br i1 %.not6, label %8, label %5

5:                                                ; preds = %3
  %6 = tail call ptr @ossl_prov_cipher_hw_rc2_cbc(i64 noundef 40) #5
  tail call void @ossl_cipher_generic_initkey(ptr noundef nonnull %4, i64 noundef 40, i64 noundef 64, i64 noundef 64, i32 noundef 2, i64 noundef 256, ptr noundef %6, ptr noundef null) #5
  %7 = getelementptr inbounds nuw i8, ptr %4, i64 448
  store i64 40, ptr %7, align 8, !tbaa !3
  br label %8

8:                                                ; preds = %3, %5, %1
  %.0 = phi ptr [ null, %1 ], [ %4, %5 ], [ null, %3 ]
  ret ptr %.0
}